; ModuleID = 'source-C-CXX/57/723.c'
source_filename = "source-C-CXX/57/723.c"
target datalayout = "e-m:e-p270:32:32-p271:32:32-p272:64:64-i64:64-f80:128-n8:16:32:64-S128"
target triple = "x86_64-pc-linux-gnu"

@.str = private unnamed_addr constant [4 x i8] c"%d\0A\00", align 1
@str.4 = private unnamed_addr constant [2 x i8] c"1\00", align 1
@str.5 = private unnamed_addr constant [2 x i8] c"0\00", align 1

; Function Attrs: nounwind sspstrong uwtable
define dso_local i32 @main() local_unnamed_addr #0 {
  %1 = alloca i32, align 4
  %2 = alloca [81 x i8], align 16
  %3 = bitcast i32* %1 to i8*
  call void @llvm.lifetime.start.p0i8(i64 4, i8* nonnull %3) #6
  %4 = call i32 (i8*, ...) @__isoc99_scanf(i8* getelementptr inbounds ([4 x i8], [4 x i8]* @.str, i64 0, i64 0), i32* nonnull %1)
  %5 = getelementptr inbounds [81 x i8], [81 x i8]* %2, i64 0, i64 0
  call void @llvm.lifetime.start.p0i8(i64 81, i8* nonnull %5) #6
  %6 = load i32, i32* %1, align 4, !tbaa !5
  %7 = icmp slt i32 %6, 1
  br i1 %7, label %50, label %8

8:                                                ; preds = %0, %46
  %9 = phi i32 [ %47, %46 ], [ 1, %0 ]
  %10 = call i32 (i8*, ...) bitcast (i32 (...)* @gets to i32 (i8*, ...)*)(i8* nonnull %5) #6
  %11 = call i64 @strlen(i8* noundef nonnull %5) #7
  %12 = trunc i64 %11 to i32
  %13 = load i8, i8* %5, align 16, !tbaa !9
  %14 = icmp eq i8 %13, 95
  br i1 %14, label %18, label %15

15:                                               ; preds = %8
  %16 = icmp slt i8 %13, 65
  br i1 %16, label %43, label %17

17:                                               ; preds = %15
  switch i8 %13, label %18 [
    i8 127, label %43
    i8 126, label %43
    i8 125, label %43
    i8 124, label %43
    i8 123, label %43
    i8 96, label %43
    i8 95, label %43
    i8 94, label %43
    i8 93, label %43
    i8 92, label %43
    i8 91, label %43
  ]

18:                                               ; preds = %17, %8
  %19 = icmp eq i32 %12, 1
  br i1 %19, label %43, label %20

20:                                               ; preds = %18
  %21 = icmp slt i32 %12, 1
  br i1 %21, label %46, label %22

22:                                               ; preds = %20
  %23 = add i64 %11, 4294967295
  %24 = and i64 %23, 4294967295
  %25 = add i64 %11, 1
  %26 = and i64 %25, 4294967295
  br label %30

27:                                               ; preds = %41
  %28 = add nuw nsw i64 %31, 1
  %29 = icmp eq i64 %28, %26
  br i1 %29, label %46, label %30, !llvm.loop !10

30:                                               ; preds = %22, %27
  %31 = phi i64 [ 1, %22 ], [ %28, %27 ]
  %32 = getelementptr inbounds [81 x i8], [81 x i8]* %2, i64 0, i64 %31
  %33 = load i8, i8* %32, align 1, !tbaa !9
  %34 = icmp eq i8 %33, 95
  br i1 %34, label %41, label %35

35:                                               ; preds = %30
  %36 = icmp slt i8 %33, 65
  br i1 %36, label %38, label %37

37:                                               ; preds = %35
  switch i8 %33, label %41 [
    i8 127, label %43
    i8 126, label %43
    i8 125, label %43
    i8 124, label %43
    i8 123, label %43
    i8 96, label %43
    i8 95, label %43
    i8 94, label %43
    i8 93, label %43
    i8 92, label %43
    i8 91, label %43
  ]

38:                                               ; preds = %35
  %39 = add i8 %33, -48
  %40 = icmp ugt i8 %39, 9
  br i1 %40, label %43, label %41

41:                                               ; preds = %37, %38, %30
  %42 = icmp eq i64 %31, %24
  br i1 %42, label %43, label %27

43:                                               ; preds = %41, %38, %37, %37, %37, %37, %37, %37, %37, %37, %37, %37, %37, %18, %15, %17, %17, %17, %17, %17, %17, %17, %17, %17, %17, %17
  %44 = phi i8* [ getelementptr inbounds ([2 x i8], [2 x i8]* @str.5, i64 0, i64 0), %17 ], [ getelementptr inbounds ([2 x i8], [2 x i8]* @str.5, i64 0, i64 0), %17 ], [ getelementptr inbounds ([2 x i8], [2 x i8]* @str.5, i64 0, i64 0), %17 ], [ getelementptr inbounds ([2 x i8], [2 x i8]* @str.5, i64 0, i64 0), %17 ], [ getelementptr inbounds ([2 x i8], [2 x i8]* @str.5, i64 0, i64 0), %17 ], [ getelementptr inbounds ([2 x i8], [2 x i8]* @str.5, i64 0, i64 0), %17 ], [ getelementptr inbounds ([2 x i8], [2 x i8]* @str.5, i64 0, i64 0), %17 ], [ getelementptr inbounds ([2 x i8], [2 x i8]* @str.5, i64 0, i64 0), %17 ], [ getelementptr inbounds ([2 x i8], [2 x i8]* @str.5, i64 0, i64 0), %17 ], [ getelementptr inbounds ([2 x i8], [2 x i8]* @str.5, i64 0, i64 0), %17 ], [ getelementptr inbounds ([2 x i8], [2 x i8]* @str.5, i64 0, i64 0), %17 ], [ getelementptr inbounds ([2 x i8], [2 x i8]* @str.5, i64 0, i64 0), %15 ], [ getelementptr inbounds ([2 x i8], [2 x i8]* @str.4, i64 0, i64 0), %18 ], [ getelementptr inbounds ([2 x i8], [2 x i8]* @str.5, i64 0, i64 0), %37 ], [ getelementptr inbounds ([2 x i8], [2 x i8]* @str.5, i64 0, i64 0), %37 ], [ getelementptr inbounds ([2 x i8], [2 x i8]* @str.5, i64 0, i64 0), %37 ], [ getelementptr inbounds ([2 x i8], [2 x i8]* @str.5, i64 0, i64 0), %37 ], [ getelementptr inbounds ([2 x i8], [2 x i8]* @str.5, i64 0, i64 0), %37 ], [ getelementptr inbounds ([2 x i8], [2 x i8]* @str.5, i64 0, i64 0), %37 ], [ getelementptr inbounds ([2 x i8], [2 x i8]* @str.5, i64 0, i64 0), %37 ], [ getelementptr inbounds ([2 x i8], [2 x i8]* @str.5, i64 0, i64 0), %37 ], [ getelementptr inbounds ([2 x i8], [2 x i8]* @str.5, i64 0, i64 0), %37 ], [ getelementptr inbounds ([2 x i8], [2 x i8]* @str.5, i64 0, i64 0), %37 ], [ getelementptr inbounds ([2 x i8], [2 x i8]* @str.5, i64 0, i64 0), %37 ], [ getelementptr inbounds ([2 x i8], [2 x i8]* @str.5, i64 0, i64 0), %38 ], [ getelementptr inbounds ([2 x i8], [2 x i8]* @str.4, i64 0, i64 0), %41 ]
  %45 = call i32 @puts(i8* nonnull dereferenceable(1) %44)
  br label %46

46:                                               ; preds = %27, %43, %20
  %47 = add nuw nsw i32 %9, 1
  %48 = load i32, i32* %1, align 4, !tbaa !5
  %49 = icmp slt i32 %9, %48
  br i1 %49, label %8, label %50, !llvm.loop !12

50:                                               ; preds = %46, %0
  call void @llvm.lifetime.end.p0i8(i64 81, i8* nonnull %5) #6
  call void @llvm.lifetime.end.p0i8(i64 4, i8* nonnull %3) #6
  ret i32 0
}

; Function Attrs: argmemonly mustprogress nofree nosync nounwind willreturn
declare void @llvm.lifetime.start.p0i8(i64 immarg, i8* nocapture) #1

; Function Attrs: nofree nounwind
declare noundef i32 @__isoc99_scanf(i8* nocapture noundef readonly, ...) local_unnamed_addr #2

declare i32 @gets(...) local_unnamed_addr #3

; Function Attrs: argmemonly mustprogress nofree nounwind readonly willreturn
declare i64 @strlen(i8* nocapture) local_unnamed_addr #4

; Function Attrs: argmemonly mustprogress nofree nosync nounwind willreturn
declare void @llvm.lifetime.end.p0i8(i64 immarg, i8* nocapture) #1

; Function Attrs: nofree nounwind
declare noundef i32 @puts(i8* nocapture noundef readonly) local_unnamed_addr #5


!llvm.module.flags = !{!0, !1, !2, !3}
!llvm.ident = !{!4}

!0 = !{i32 1, !"wchar_size", i32 4}
!1 = !{i32 7, !"PIC Level", i32 2}
!2 = !{i32 7, !"PIE Level", i32 2}
!3 = !{i32 7, !"uwtable", i32 1}
!4 = !{!"clang version 13.0.0"}
!5 = !{!6, !6, i64 0}
!6 = !{!"int", !7, i64 0}
!7 = !{!"omnipotent char", !8, i64 0}
!8 = !{!"Simple C/C++ TBAA"}
!9 = !{!7, !7, i64 0}
!10 = distinct !{!10, !11}
!11 = !{!"llvm.loop.mustprogress"}
!12 = distinct !{!12, !11}
